target datalayout = "e-m:e-p270:32:32-p271:32:32-p272:64:64-i64:64-i128:128-f80:128-n8:16:32:64-S128"
target triple = "x86_64-unknown-linux-gnu"

%union.pthread_mutex_t = type { %struct.__pthread_mutex_s }
%struct.__pthread_mutex_s = type { i32, i32, i32, i32, i32, i16, i16, %struct.__pthread_internal_list }
%struct.__pthread_internal_list = type { ptr, ptr }
%struct.RBRootLeftCached = type { %struct.RBRoot, ptr }
%struct.RBRoot = type { ptr }
%struct.IntervalTreeNode = type { %struct.RBNode, i64, i64, i64 }
%struct.RBNode = type { i64, ptr, ptr }
%struct.timeval = type { i64, i64 }

@mmap_lock_count = internal thread_local global i32 0, align 4
@mmap_mutex = internal global %union.pthread_mutex_t zeroinitializer, align 8
@.str = private unnamed_addr constant [20 x i8] c"mmap_lock_count > 0\00", align 1
@.str.1 = private unnamed_addr constant [26 x i8] c"../qemu/linux-user/mmap.c\00", align 1
@__PRETTY_FUNCTION__.mmap_unlock = private unnamed_addr constant [23 x i8] c"void mmap_unlock(void)\00", align 1
@reserved_va = external global i64, align 8
@trace_events_enabled_count = external global i32, align 4
@message_with_timestamp = external global i8, align 1
@shm_regions = internal global %struct.RBRootLeftCached zeroinitializer, align 8
@qemu_loglevel = external global i32, align 4
@_TRACE_TARGET_MUNMAP_DSTATE = external global i16, align 2
@.str.14 = private unnamed_addr constant [50 x i8] c"%d@%zu.%06zu:target_munmap start=0x%lx len=0x%lx\0A\00", align 1
@.str.15 = private unnamed_addr constant [37 x i8] c"target_munmap start=0x%lx len=0x%lx\0A\00", align 1

; Function Attrs: nounwind sspstrong uwtable
define internal zeroext i1 @qemu_loglevel_mask(i32 noundef %mask) #0 {
entry:
  %mask.addr = alloca i32, align 4
  store i32 %mask, ptr %mask.addr, align 4
  %0 = load i32, ptr @qemu_loglevel, align 4
  %1 = load i32, ptr %mask.addr, align 4
  %and = and i32 %0, %1
  %cmp = icmp ne i32 %and, 0
  ret i1 %cmp
}

; Function Attrs: nounwind sspstrong uwtable
define internal void @_nocheck__trace_target_munmap(i64 noundef %start, i64 noundef %len) #0 {
entry:
  %start.addr = alloca i64, align 8
  %len.addr = alloca i64, align 8
  %_now = alloca %struct.timeval, align 8
  store i64 %start, ptr %start.addr, align 8
  store i64 %len, ptr %len.addr, align 8
  %0 = load i32, ptr @trace_events_enabled_count, align 4
  %tobool = icmp ne i32 %0, 0
  %lnot = xor i1 %tobool, true
  %lnot1 = xor i1 %lnot, true
  %lnot.ext = zext i1 %lnot1 to i32
  %conv = sext i32 %lnot.ext to i64
  %tobool2 = icmp ne i64 %conv, 0
  br i1 %tobool2, label %land.lhs.true, label %if.end11

land.lhs.true:                                    ; preds = %entry
  %1 = load i16, ptr @_TRACE_TARGET_MUNMAP_DSTATE, align 2
  %conv3 = zext i16 %1 to i32
  %tobool4 = icmp ne i32 %conv3, 0
  br i1 %tobool4, label %land.lhs.true5, label %if.end11

land.lhs.true5:                                   ; preds = %land.lhs.true
  %call = call zeroext i1 @qemu_loglevel_mask(i32 noundef 32768)
  br i1 %call, label %if.then, label %if.end11

if.then:                                          ; preds = %land.lhs.true5
  %2 = load i8, ptr @message_with_timestamp, align 1
  %tobool7 = trunc i8 %2 to i1
  br i1 %tobool7, label %if.then8, label %if.else

if.then8:                                         ; preds = %if.then
  %call9 = call i32 @gettimeofday(ptr noundef %_now, ptr noundef null) #8
  %call10 = call i32 @qemu_get_thread_id()
  %tv_sec = getelementptr inbounds %struct.timeval, ptr %_now, i32 0, i32 0
  %3 = load i64, ptr %tv_sec, align 8
  %tv_usec = getelementptr inbounds %struct.timeval, ptr %_now, i32 0, i32 1
  %4 = load i64, ptr %tv_usec, align 8
  %5 = load i64, ptr %start.addr, align 8
  %6 = load i64, ptr %len.addr, align 8
  call void (ptr, ...) @qemu_log(ptr noundef @.str.14, i32 noundef %call10, i64 noundef %3, i64 noundef %4, i64 noundef %5, i64 noundef %6)
  br label %if.end

if.else:                                          ; preds = %if.then
  %7 = load i64, ptr %start.addr, align 8
  %8 = load i64, ptr %len.addr, align 8
  call void (ptr, ...) @qemu_log(ptr noundef @.str.15, i64 noundef %7, i64 noundef %8)
  br label %if.end

if.end:                                           ; preds = %if.else, %if.then8
  br label %if.end11

if.end11:                                         ; preds = %if.end, %land.lhs.true5, %land.lhs.true, %entry
  ret void
}

; Function Attrs: nounwind sspstrong uwtable
define dso_local void @mmap_unlock() #0 {
entry:
  %0 = call align 4 ptr @llvm.threadlocal.address.p0(ptr align 4 @mmap_lock_count)
  %1 = load i32, ptr %0, align 4
  %cmp = icmp sgt i32 %1, 0
  br i1 %cmp, label %if.then, label %if.else

if.then:                                          ; preds = %entry
  br label %if.end

if.else:                                          ; preds = %entry
  call void @__assert_fail(ptr noundef @.str, ptr noundef @.str.1, i32 noundef 45, ptr noundef @__PRETTY_FUNCTION__.mmap_unlock) #9
  unreachable

if.end:                                           ; preds = %if.then
  %2 = call align 4 ptr @llvm.threadlocal.address.p0(ptr align 4 @mmap_lock_count)
  %3 = load i32, ptr %2, align 4
  %dec = add i32 %3, -1
  store i32 %dec, ptr %2, align 4
  %cmp1 = icmp eq i32 %dec, 0
  br i1 %cmp1, label %if.then2, label %if.end3

if.then2:                                         ; preds = %if.end
  %call = call i32 @pthread_mutex_unlock(ptr noundef @mmap_mutex) #8
  br label %if.end3

if.end3:                                          ; preds = %if.then2, %if.end
  ret void
}

; Function Attrs: nounwind sspstrong uwtable
define internal void @shm_region_rm_complete(i64 noundef %start, i64 noundef %last) #0 {
entry:
  %start.addr = alloca i64, align 8
  %last.addr = alloca i64, align 8
  %i = alloca ptr, align 8
  %n = alloca ptr, align 8
  store i64 %start, ptr %start.addr, align 8
  store i64 %last, ptr %last.addr, align 8
  %0 = load i64, ptr %start.addr, align 8
  %1 = load i64, ptr %last.addr, align 8
  %call = call ptr @interval_tree_iter_first(ptr noundef @shm_regions, i64 noundef %0, i64 noundef %1)
  store ptr %call, ptr %i, align 8
  br label %for.cond

for.cond:                                         ; preds = %for.inc, %entry
  %2 = load ptr, ptr %i, align 8
  %tobool = icmp ne ptr %2, null
  br i1 %tobool, label %for.body, label %for.end

for.body:                                         ; preds = %for.cond
  %3 = load ptr, ptr %i, align 8
  %4 = load i64, ptr %start.addr, align 8
  %5 = load i64, ptr %last.addr, align 8
  %call1 = call ptr @interval_tree_iter_next(ptr noundef %3, i64 noundef %4, i64 noundef %5)
  store ptr %call1, ptr %n, align 8
  %6 = load ptr, ptr %i, align 8
  %start2 = getelementptr inbounds %struct.IntervalTreeNode, ptr %6, i32 0, i32 1
  %7 = load i64, ptr %start2, align 8
  %8 = load i64, ptr %start.addr, align 8
  %cmp = icmp uge i64 %7, %8
  br i1 %cmp, label %land.lhs.true, label %if.end

land.lhs.true:                                    ; preds = %for.body
  %9 = load ptr, ptr %i, align 8
  %last3 = getelementptr inbounds %struct.IntervalTreeNode, ptr %9, i32 0, i32 2
  %10 = load i64, ptr %last3, align 8
  %11 = load i64, ptr %last.addr, align 8
  %cmp4 = icmp ule i64 %10, %11
  br i1 %cmp4, label %if.then, label %if.end

if.then:                                          ; preds = %land.lhs.true
  %12 = load ptr, ptr %i, align 8
  call void @interval_tree_remove(ptr noundef %12, ptr noundef @shm_regions)
  %13 = load ptr, ptr %i, align 8
  call void @g_free(ptr noundef %13)
  br label %if.end

if.end:                                           ; preds = %if.then, %land.lhs.true, %for.body
  br label %for.inc

for.inc:                                          ; preds = %if.end
  %14 = load ptr, ptr %n, align 8
  store ptr %14, ptr %i, align 8
  br label %for.cond, !llvm.loop !13

for.end:                                          ; preds = %for.cond
  ret void
}

; Function Attrs: nounwind sspstrong uwtable
define dso_local void @mmap_lock() #0 {
entry:
  %0 = call align 4 ptr @llvm.threadlocal.address.p0(ptr align 4 @mmap_lock_count)
  %1 = load i32, ptr %0, align 4
  %inc = add i32 %1, 1
  store i32 %inc, ptr %0, align 4
  %cmp = icmp eq i32 %1, 0
  br i1 %cmp, label %if.then, label %if.end

if.then:                                          ; preds = %entry
  %call = call i32 @pthread_mutex_lock(ptr noundef @mmap_mutex) #8
  br label %if.end

if.end:                                           ; preds = %if.then, %entry
  ret void
}

; Function Attrs: nounwind sspstrong uwtable
define internal zeroext i1 @guest_range_valid_untagged(i64 noundef %start, i64 noundef %len) #0 {
entry:
  %start.addr = alloca i64, align 8
  %len.addr = alloca i64, align 8
  store i64 %start, ptr %start.addr, align 8
  store i64 %len, ptr %len.addr, align 8
  %0 = load i64, ptr %len.addr, align 8
  %sub = sub i64 %0, 1
  %1 = load i64, ptr @reserved_va, align 8
  %tobool = icmp ne i64 %1, 0
  br i1 %tobool, label %cond.true, label %cond.false

cond.true:                                        ; preds = %entry
  br label %cond.end

cond.false:                                       ; preds = %entry
  br label %cond.end

cond.end:                                         ; preds = %cond.false, %cond.true
  %cond = phi i64 [ %1, %cond.true ], [ -1, %cond.false ]
  %cmp = icmp ule i64 %sub, %cond
  br i1 %cmp, label %land.rhs, label %land.end

land.rhs:                                         ; preds = %cond.end
  %2 = load i64, ptr %start.addr, align 8
  %3 = load i64, ptr @reserved_va, align 8
  %tobool1 = icmp ne i64 %3, 0
  br i1 %tobool1, label %cond.true2, label %cond.false3

cond.true2:                                       ; preds = %land.rhs
  br label %cond.end4

cond.false3:                                      ; preds = %land.rhs
  br label %cond.end4

cond.end4:                                        ; preds = %cond.false3, %cond.true2
  %cond5 = phi i64 [ %3, %cond.true2 ], [ -1, %cond.false3 ]
  %4 = load i64, ptr %len.addr, align 8
  %sub6 = sub i64 %cond5, %4
  %add = add i64 %sub6, 1
  %cmp7 = icmp ule i64 %2, %add
  br label %land.end

land.end:                                         ; preds = %cond.end4, %cond.end
  %5 = phi i1 [ false, %cond.end ], [ %cmp7, %cond.end4 ]
  ret i1 %5
}

; Function Attrs: nounwind sspstrong uwtable
define internal void @trace_target_munmap(i64 noundef %start, i64 noundef %len) #0 {
entry:
  %start.addr = alloca i64, align 8
  %len.addr = alloca i64, align 8
  store i64 %start, ptr %start.addr, align 8
  store i64 %len, ptr %len.addr, align 8
  %0 = load i64, ptr %start.addr, align 8
  %1 = load i64, ptr %len.addr, align 8
  call void @_nocheck__trace_target_munmap(i64 noundef %0, i64 noundef %1)
  ret void
}

; Function Attrs: nounwind sspstrong uwtable
define dso_local i32 @target_munmap(i64 noundef %start, i64 noundef %len) #0 {
entry:
  %retval = alloca i32, align 4
  %start.addr = alloca i64, align 8
  %len.addr = alloca i64, align 8
  %ret = alloca i32, align 4
  store i64 %start, ptr %start.addr, align 8
  store i64 %len, ptr %len.addr, align 8
  %0 = load i64, ptr %start.addr, align 8
  %1 = load i64, ptr %len.addr, align 8
  call void @trace_target_munmap(i64 noundef %0, i64 noundef %1)
  %2 = load i64, ptr %start.addr, align 8
  %and = and i64 %2, 4095
  %tobool = icmp ne i64 %and, 0
  br i1 %tobool, label %if.then, label %if.end

if.then:                                          ; preds = %entry
  %call = call ptr @__errno_location() #10
  store i32 22, ptr %call, align 4
  store i32 -1, ptr %retval, align 4
  br label %return

if.end:                                           ; preds = %entry
  %3 = load i64, ptr %len.addr, align 8
  %add = add i64 %3, 4096
  %sub = sub i64 %add, 1
  %and1 = and i64 %sub, -4096
  store i64 %and1, ptr %len.addr, align 8
  %4 = load i64, ptr %len.addr, align 8
  %cmp = icmp eq i64 %4, 0
  br i1 %cmp, label %if.then3, label %lor.lhs.false

lor.lhs.false:                                    ; preds = %if.end
  %5 = load i64, ptr %start.addr, align 8
  %6 = load i64, ptr %len.addr, align 8
  %call2 = call zeroext i1 @guest_range_valid_untagged(i64 noundef %5, i64 noundef %6)
  br i1 %call2, label %if.end5, label %if.then3

if.then3:                                         ; preds = %lor.lhs.false, %if.end
  %call4 = call ptr @__errno_location() #10
  store i32 22, ptr %call4, align 4
  store i32 -1, ptr %retval, align 4
  br label %return

if.end5:                                          ; preds = %lor.lhs.false
  call void @mmap_lock()
  %7 = load i64, ptr %start.addr, align 8
  %8 = load i64, ptr %len.addr, align 8
  %call6 = call i32 @mmap_reserve_or_unmap(i64 noundef %7, i64 noundef %8)
  store i32 %call6, ptr %ret, align 4
  %9 = load i32, ptr %ret, align 4
  %cmp7 = icmp eq i32 %9, 0
  %lnot = xor i1 %cmp7, true
  %lnot8 = xor i1 %lnot, true
  %lnot.ext = zext i1 %lnot8 to i32
  %conv = sext i32 %lnot.ext to i64
  %tobool9 = icmp ne i64 %conv, 0
  br i1 %tobool9, label %if.then10, label %if.end15

if.then10:                                        ; preds = %if.end5
  %10 = load i64, ptr %start.addr, align 8
  %11 = load i64, ptr %start.addr, align 8
  %12 = load i64, ptr %len.addr, align 8
  %add11 = add i64 %11, %12
  %sub12 = sub i64 %add11, 1
  call void @page_set_flags(i64 noundef %10, i64 noundef %sub12, i32 noundef 0)
  %13 = load i64, ptr %start.addr, align 8
  %14 = load i64, ptr %start.addr, align 8
  %15 = load i64, ptr %len.addr, align 8
  %add13 = add i64 %14, %15
  %sub14 = sub i64 %add13, 1
  call void @shm_region_rm_complete(i64 noundef %13, i64 noundef %sub14)
  br label %if.end15

if.end15:                                         ; preds = %if.then10, %if.end5
  call void @mmap_unlock()
  %16 = load i32, ptr %ret, align 4
  store i32 %16, ptr %retval, align 4
  br label %return

return:                                           ; preds = %if.end15, %if.then3, %if.then
  %17 = load i32, ptr %retval, align 4
  ret i32 %17
}