; Function Attrs: nounwind sspstrong uwtable
define dso_local i32 @target_munmap(i64 noundef %start, i64 noundef %len) local_unnamed_addr #0 {
entry:
  %_now.i.i = alloca %struct.timeval, align 8
  call void @llvm.lifetime.start.p0(i64 16, ptr nonnull %_now.i.i)
  %0 = load i32, ptr @trace_events_enabled_count, align 4
  %tobool.i.i = icmp ne i32 %0, 0
  %1 = load i16, ptr @_TRACE_TARGET_MUNMAP_DSTATE, align 2
  %tobool4.i.i = icmp ne i16 %1, 0
  %or.cond.i.i = select i1 %tobool.i.i, i1 %tobool4.i.i, i1 false
  br i1 %or.cond.i.i, label %land.lhs.true5.i.i, label %trace_target_munmap.exit

land.lhs.true5.i.i:                               ; preds = %entry
  %2 = load i32, ptr @qemu_loglevel, align 4
  %and.i.i.i = and i32 %2, 32768
  %cmp.i.not.i.i = icmp eq i32 %and.i.i.i, 0
  br i1 %cmp.i.not.i.i, label %trace_target_munmap.exit, label %if.then.i.i

if.then.i.i:                                      ; preds = %land.lhs.true5.i.i
  %3 = load i8, ptr @message_with_timestamp, align 1
  %tobool7.i.i = trunc i8 %3 to i1
  br i1 %tobool7.i.i, label %if.then8.i.i, label %if.else.i.i

if.then8.i.i:                                     ; preds = %if.then.i.i
  %call9.i.i = call i32 @gettimeofday(ptr noundef nonnull %_now.i.i, ptr noundef null) #14
  %call10.i.i = tail call i32 @qemu_get_thread_id() #14
  %4 = load i64, ptr %_now.i.i, align 8
  %tv_usec.i.i = getelementptr inbounds nuw i8, ptr %_now.i.i, i64 8
  %5 = load i64, ptr %tv_usec.i.i, align 8
  tail call void (ptr, ...) @qemu_log(ptr noundef nonnull @.str.14, i32 noundef %call10.i.i, i64 noundef %4, i64 noundef %5, i64 noundef %start, i64 noundef %len) #14
  br label %trace_target_munmap.exit

if.else.i.i:                                      ; preds = %if.then.i.i
  tail call void (ptr, ...) @qemu_log(ptr noundef nonnull @.str.15, i64 noundef %start, i64 noundef %len) #14
  br label %trace_target_munmap.exit

trace_target_munmap.exit:                         ; preds = %entry, %land.lhs.true5.i.i, %if.then8.i.i, %if.else.i.i
  call void @llvm.lifetime.end.p0(i64 16, ptr nonnull %_now.i.i)
  %and = and i64 %start, 4095
  %tobool.not = icmp eq i64 %and, 0
  br i1 %tobool.not, label %if.end, label %if.then

if.then:                                          ; preds = %trace_target_munmap.exit
  %call = tail call ptr @__errno_location() #16
  store i32 22, ptr %call, align 4
  br label %return

if.end:                                           ; preds = %trace_target_munmap.exit
  %sub = add i64 %len, 4095
  %and1 = and i64 %sub, -4096
  %cmp = icmp eq i64 %and1, 0
  br i1 %cmp, label %if.then3, label %lor.lhs.false

lor.lhs.false:                                    ; preds = %if.end
  %sub.i = add i64 %and1, -1
  %6 = load i64, ptr @reserved_va, align 8
  %tobool.not.i = icmp eq i64 %6, 0
  %..i = select i1 %tobool.not.i, i64 -1, i64 %6
  %cmp.not.i = icmp ule i64 %sub.i, %..i
  %reass.sub = sub i64 %..i, %and1
  %add.i = add i64 %reass.sub, 1
  %cmp7.i = icmp ule i64 %start, %add.i
  %7 = and i1 %cmp.not.i, %cmp7.i
  br i1 %7, label %if.end5, label %if.then3

if.then3:                                         ; preds = %lor.lhs.false, %if.end
  %call4 = tail call ptr @__errno_location() #16
  store i32 22, ptr %call4, align 4
  br label %return

if.end5:                                          ; preds = %lor.lhs.false
  %8 = tail call align 4 ptr @llvm.threadlocal.address.p0(ptr align 4 @mmap_lock_count)
  %9 = load i32, ptr %8, align 4
  %inc.i = add i32 %9, 1
  store i32 %inc.i, ptr %8, align 4
  %cmp.i = icmp eq i32 %9, 0
  br i1 %cmp.i, label %if.then.i, label %mmap_lock.exit

if.then.i:                                        ; preds = %if.end5
  %call.i = tail call i32 @pthread_mutex_lock(ptr noundef nonnull @mmap_mutex) #14
  br label %mmap_lock.exit

mmap_lock.exit:                                   ; preds = %if.end5, %if.then.i
  %call6 = tail call fastcc i32 @mmap_reserve_or_unmap(i64 noundef %start, i64 noundef %and1)
  %cmp7 = icmp eq i32 %call6, 0
  br i1 %cmp7, label %if.then10, label %if.end15

if.then10:                                        ; preds = %mmap_lock.exit
  %add11 = add i64 %start, -1
  %sub12 = add i64 %add11, %and1
  tail call void @page_set_flags(i64 noundef %start, i64 noundef %sub12, i32 noundef 0) #14
  %call.i15 = tail call ptr @interval_tree_iter_first(ptr noundef nonnull @shm_regions, i64 noundef %start, i64 noundef %sub12) #14
  %tobool.not10.i = icmp eq ptr %call.i15, null
  br i1 %tobool.not10.i, label %if.end15, label %for.body.i

for.body.i:                                       ; preds = %if.then10, %for.inc.i
  %i.011.i = phi ptr [ %call1.i, %for.inc.i ], [ %call.i15, %if.then10 ]
  %call1.i = tail call ptr @interval_tree_iter_next(ptr noundef nonnull %i.011.i, i64 noundef %start, i64 noundef %sub12) #14
  %start2.i = getelementptr inbounds nuw i8, ptr %i.011.i, i64 24
  %10 = load i64, ptr %start2.i, align 8
  %cmp.not.i16 = icmp ult i64 %10, %start
  br i1 %cmp.not.i16, label %for.inc.i, label %land.lhs.true.i

land.lhs.true.i:                                  ; preds = %for.body.i
  %last3.i = getelementptr inbounds nuw i8, ptr %i.011.i, i64 32
  %11 = load i64, ptr %last3.i, align 8
  %cmp4.not.i = icmp ugt i64 %11, %sub12
  br i1 %cmp4.not.i, label %for.inc.i, label %if.then.i17

if.then.i17:                                      ; preds = %land.lhs.true.i
  tail call void @interval_tree_remove(ptr noundef nonnull %i.011.i, ptr noundef nonnull @shm_regions) #14
  tail call void @g_free(ptr noundef nonnull %i.011.i) #14
  br label %for.inc.i

for.inc.i:                                        ; preds = %if.then.i17, %land.lhs.true.i, %for.body.i
  %tobool.not.i18 = icmp eq ptr %call1.i, null
  br i1 %tobool.not.i18, label %if.end15, label %for.body.i, !llvm.loop !13

if.end15:                                         ; preds = %for.inc.i, %if.then10, %mmap_lock.exit
  %12 = load i32, ptr %8, align 4
  %cmp.i19 = icmp sgt i32 %12, 0
  br i1 %cmp.i19, label %if.end.i, label %if.else.i

if.else.i:                                        ; preds = %if.end15
  tail call void @__assert_fail(ptr noundef nonnull @.str, ptr noundef nonnull @.str.1, i32 noundef 45, ptr noundef nonnull @__PRETTY_FUNCTION__.mmap_unlock) #15
  unreachable

if.end.i:                                         ; preds = %if.end15
  %dec.i = add nsw i32 %12, -1
  store i32 %dec.i, ptr %8, align 4
  %cmp1.i = icmp eq i32 %dec.i, 0
  br i1 %cmp1.i, label %if.then2.i, label %return

if.then2.i:                                       ; preds = %if.end.i
  %call.i20 = tail call i32 @pthread_mutex_unlock(ptr noundef nonnull @mmap_mutex) #14
  br label %return

return:                                           ; preds = %if.then2.i, %if.end.i, %if.then3, %if.then
  %retval.0 = phi i32 [ -1, %if.then ], [ -1, %if.then3 ], [ %call6, %if.end.i ], [ %call6, %if.then2.i ]
  ret i32 %retval.0
}